; ModuleID = 'source-C-CXX/25/964.c'
source_filename = "source-C-CXX/25/964.c"
target datalayout = "e-m:e-p270:32:32-p271:32:32-p272:64:64-i64:64-f80:128-n8:16:32:64-S128"
target triple = "x86_64-pc-linux-gnu"

; Function Attrs: nounwind sspstrong uwtable
define dso_local i32 @main() local_unnamed_addr #0 {
  %1 = alloca [100 x i8], align 16
  %2 = alloca [100 x i8], align 16
  %3 = getelementptr inbounds [100 x i8], [100 x i8]* %1, i64 0, i64 0
  call void @llvm.lifetime.start.p0i8(i64 100, i8* nonnull %3) #5
  %4 = getelementptr inbounds [100 x i8], [100 x i8]* %2, i64 0, i64 0
  call void @llvm.lifetime.start.p0i8(i64 100, i8* nonnull %4) #5
  %5 = call i32 (i8*, ...) bitcast (i32 (...)* @gets to i32 (i8*, ...)*)(i8* nonnull %3) #5
  %6 = call i64 @strlen(i8* noundef nonnull %3) #6
  %7 = trunc i64 %6 to i32
  %8 = icmp sgt i32 %7, 0
  br i1 %8, label %9, label %32

9:                                                ; preds = %0
  %10 = and i64 %6, 4294967295
  br label %11

11:                                               ; preds = %9, %29
  %12 = phi i64 [ 0, %9 ], [ %17, %29 ]
  %13 = phi i32 [ 0, %9 ], [ %30, %29 ]
  %14 = getelementptr inbounds [100 x i8], [100 x i8]* %1, i64 0, i64 %12
  %15 = load i8, i8* %14, align 1, !tbaa !5
  %16 = icmp eq i8 %15, 32
  %17 = add nuw nsw i64 %12, 1
  br i1 %16, label %18, label %24

18:                                               ; preds = %11
  %19 = getelementptr inbounds [100 x i8], [100 x i8]* %1, i64 0, i64 %17
  %20 = load i8, i8* %19, align 1, !tbaa !5
  %21 = icmp eq i8 %20, 32
  br i1 %21, label %22, label %24

22:                                               ; preds = %18
  %23 = add nsw i32 %13, 1
  br label %29

24:                                               ; preds = %11, %18
  %25 = trunc i64 %12 to i32
  %26 = sub nsw i32 %25, %13
  %27 = sext i32 %26 to i64
  %28 = getelementptr inbounds [100 x i8], [100 x i8]* %2, i64 0, i64 %27
  store i8 %15, i8* %28, align 1, !tbaa !5
  br label %29

29:                                               ; preds = %24, %22
  %30 = phi i32 [ %13, %24 ], [ %23, %22 ]
  %31 = icmp eq i64 %17, %10
  br i1 %31, label %32, label %11, !llvm.loop !8

32:                                               ; preds = %29, %0
  %33 = phi i32 [ 0, %0 ], [ %30, %29 ]
  %34 = phi i32 [ 0, %0 ], [ %7, %29 ]
  %35 = sub nsw i32 %34, %33
  %36 = sext i32 %35 to i64
  %37 = getelementptr inbounds [100 x i8], [100 x i8]* %2, i64 0, i64 %36
  store i8 0, i8* %37, align 1, !tbaa !5
  %38 = call i32 @puts(i8* nonnull %4)
  call void @llvm.lifetime.end.p0i8(i64 100, i8* nonnull %4) #5
  call void @llvm.lifetime.end.p0i8(i64 100, i8* nonnull %3) #5
  ret i32 0
}

; Function Attrs: argmemonly mustprogress nofree nosync nounwind willreturn
declare void @llvm.lifetime.start.p0i8(i64 immarg, i8* nocapture) #1

declare i32 @gets(...) local_unnamed_addr #2

; Function Attrs: argmemonly mustprogress nofree nounwind readonly willreturn
declare i64 @strlen(i8* nocapture) local_unnamed_addr #3

; Function Attrs: nofree nounwind
declare noundef i32 @puts(i8* nocapture noundef readonly) local_unnamed_addr #4

; Function Attrs: argmemonly mustprogress nofree nosync nounwind willreturn
declare void @llvm.lifetime.end.p0i8(i64 immarg, i8* nocapture) #1


!llvm.module.flags = !{!0, !1, !2, !3}
!llvm.ident = !{!4}

!0 = !{i32 1, !"wchar_size", i32 4}
!1 = !{i32 7, !"PIC Level", i32 2}
!2 = !{i32 7, !"PIE Level", i32 2}
!3 = !{i32 7, !"uwtable", i32 1}
!4 = !{!"clang version 13.0.0"}
!5 = !{!6, !6, i64 0}
!6 = !{!"omnipotent char", !7, i64 0}
!7 = !{!"Simple C/C++ TBAA"}
!8 = distinct !{!8, !9}
!9 = !{!"llvm.loop.mustprogress"}
